target datalayout = "e-m:e-p270:32:32-p271:32:32-p272:64:64-i64:64-i128:128-f80:128-n8:16:32:64-S128"
target triple = "x86_64-pc-linux-gnu"

%struct.__va_list_tag = type { i32, i32, ptr, ptr }

@stderr = external global ptr, align 8
@transfer_debug.debug_enabled = internal global i32 -1, align 4
@.str.162 = private unnamed_addr constant [20 x i8] c"GIT_TRANSLOOP_DEBUG\00", align 1
@.str.163 = private unnamed_addr constant [29 x i8] c"Transfer loop debugging: %s\0A\00", align 1

; Function Attrs: nounwind uwtable
define internal void @transfer_debug(ptr noundef %0, ...) #0 {
  %2 = alloca ptr, align 8
  %3 = alloca [1 x %struct.__va_list_tag], align 16
  %4 = alloca [8192 x i8], align 16
  %5 = alloca i32, align 4
  store ptr %0, ptr %2, align 8, !tbaa !9
  call void @llvm.lifetime.start.p0(i64 24, ptr %3) #12
  call void @llvm.lifetime.start.p0(i64 8192, ptr %4) #12
  %6 = load i32, ptr @transfer_debug.debug_enabled, align 4, !tbaa !29
  %7 = icmp slt i32 %6, 0
  br i1 %7, label %8, label %12

8:                                                ; preds = %1
  %9 = call ptr @getenv(ptr noundef @.str.162) #12
  %10 = icmp ne ptr %9, null
  %11 = select i1 %10, i32 1, i32 0
  store i32 %11, ptr @transfer_debug.debug_enabled, align 4, !tbaa !29
  br label %12

12:                                               ; preds = %8, %1
  %13 = load i32, ptr @transfer_debug.debug_enabled, align 4, !tbaa !29
  %14 = icmp ne i32 %13, 0
  br i1 %14, label %16, label %15

15:                                               ; preds = %12
  store i32 1, ptr %5, align 4
  br label %26

16:                                               ; preds = %12
  %17 = getelementptr inbounds [1 x %struct.__va_list_tag], ptr %3, i64 0, i64 0
  call void @llvm.va_start.p0(ptr %17)
  %18 = getelementptr inbounds [8192 x i8], ptr %4, i64 0, i64 0
  %19 = load ptr, ptr %2, align 8, !tbaa !9
  %20 = getelementptr inbounds [1 x %struct.__va_list_tag], ptr %3, i64 0, i64 0
  %21 = call i32 @vsnprintf(ptr noundef %18, i64 noundef 8192, ptr noundef %19, ptr noundef %20) #12
  %22 = getelementptr inbounds [1 x %struct.__va_list_tag], ptr %3, i64 0, i64 0
  call void @llvm.va_end.p0(ptr %22)
  %23 = load ptr, ptr @stderr, align 8, !tbaa !81
  %24 = getelementptr inbounds [8192 x i8], ptr %4, i64 0, i64 0
  %25 = call i32 (ptr, ptr, ...) @fprintf(ptr noundef %23, ptr noundef @.str.163, ptr noundef %24) #12
  store i32 0, ptr %5, align 4
  br label %26

26:                                               ; preds = %16, %15
  call void @llvm.lifetime.end.p0(i64 8192, ptr %4) #12
  call void @llvm.lifetime.end.p0(i64 24, ptr %3) #12
  %27 = load i32, ptr %5, align 4
  switch i32 %27, label %29 [
    i32 0, label %28
    i32 1, label %28
  ]

28:                                               ; preds = %26, %26
  ret void

29:                                               ; preds = %26
  unreachable
}