; Function Attrs: nofree nounwind uwtable
define internal void @transfer_debug(ptr noundef readonly captures(none) %0, ...) unnamed_addr #16 {
  %2 = alloca [1 x %struct.__va_list_tag], align 16
  %3 = alloca [8192 x i8], align 16
  call void @llvm.lifetime.start.p0(i64 24, ptr nonnull %2) #19
  call void @llvm.lifetime.start.p0(i64 8192, ptr nonnull %3) #19
  %4 = load i32, ptr @transfer_debug.debug_enabled, align 4, !tbaa !55
  %5 = icmp slt i32 %4, 0
  br i1 %5, label %6, label %9

6:                                                ; preds = %1
  %7 = tail call ptr @getenv(ptr noundef nonnull @.str.162) #19
  %.not = icmp ne ptr %7, null
  %8 = zext i1 %.not to i32
  store i32 %8, ptr @transfer_debug.debug_enabled, align 4, !tbaa !55
  br label %9

9:                                                ; preds = %6, %1
  %10 = phi i32 [ %8, %6 ], [ %4, %1 ]
  %.not1 = icmp eq i32 %10, 0
  br i1 %.not1, label %15, label %11

11:                                               ; preds = %9
  call void @llvm.va_start.p0(ptr nonnull %2)
  %12 = call i32 @vsnprintf(ptr noundef nonnull %3, i64 noundef 8192, ptr noundef %0, ptr noundef nonnull %2) #19
  call void @llvm.va_end.p0(ptr nonnull %2)
  %13 = load ptr, ptr @stderr, align 8, !tbaa !82
  %14 = call i32 (ptr, ptr, ...) @fprintf(ptr noundef %13, ptr noundef nonnull @.str.163, ptr noundef nonnull %3) #22
  br label %15

15:                                               ; preds = %9, %11
  call void @llvm.lifetime.end.p0(i64 8192, ptr nonnull %3) #19
  call void @llvm.lifetime.end.p0(i64 24, ptr nonnull %2) #19
  ret void
}